; Function Attrs: mustprogress uwtable
define hidden noundef ptr @_ZN7datalog14dl_decl_plugin8mk_cloneEP4sort(ptr noundef nonnull align 8 dereferenceable(160) %0, ptr noundef %1) local_unnamed_addr #3 align 2 personality ptr @__gxx_personality_v0 {
  %3 = alloca %class.ptr_vector.40, align 8
  %4 = alloca ptr, align 8
  %5 = alloca %struct.func_decl_info, align 8
  store ptr %1, ptr %4, align 8, !tbaa !62
  call void @llvm.lifetime.start.p0(i64 8, ptr nonnull %3) #22
  store ptr null, ptr %3, align 8, !tbaa !57
  %6 = invoke noundef zeroext i1 @_ZN7datalog14dl_decl_plugin11is_rel_sortEP4sortR10ptr_vectorIS1_E(ptr noundef nonnull readonly align 8 dereferenceable(160) %0, ptr noundef readonly %1, ptr noundef nonnull align 8 dereferenceable(8) %3)
          to label %7 unwind label %14

7:                                                ; preds = %2
  %8 = load ptr, ptr %3, align 8, !tbaa !57
  %.not.i.i.i = icmp eq ptr %8, null
  br i1 %.not.i.i.i, label %_ZN7datalog14dl_decl_plugin11is_rel_sortEP4sort.exit, label %9

9:                                                ; preds = %7
  %10 = getelementptr inbounds i8, ptr %8, i64 -8
  invoke void @_ZN6memory10deallocateEPv(ptr noundef nonnull %10)
          to label %_ZN7datalog14dl_decl_plugin11is_rel_sortEP4sort.exit unwind label %11

11:                                               ; preds = %9
  %12 = landingpad { ptr, i32 }
          catch ptr null
  %13 = extractvalue { ptr, i32 } %12, 0
  call void @__clang_call_terminate(ptr %13) #25
  unreachable

common.resume:                                    ; preds = %42, %14
  %common.resume.op = phi { ptr, i32 } [ %15, %14 ], [ %43, %42 ]
  resume { ptr, i32 } %common.resume.op

14:                                               ; preds = %2
  %15 = landingpad { ptr, i32 }
          cleanup
  call void @_ZN6vectorIP4sortLb0EjED2Ev(ptr noundef nonnull align 8 dereferenceable(8) %3) #22
  call void @llvm.lifetime.end.p0(i64 8, ptr nonnull %3) #22
  br label %common.resume

_ZN7datalog14dl_decl_plugin11is_rel_sortEP4sort.exit: ; preds = %7, %9
  call void @llvm.lifetime.end.p0(i64 8, ptr nonnull %3) #22
  call void @llvm.lifetime.start.p0(i64 24, ptr nonnull %5) #22
  %16 = getelementptr inbounds nuw i8, ptr %0, i64 16
  %17 = load i32, ptr %16, align 8, !tbaa !10
  call void @_ZN14func_decl_infoC1EiijPK9parameter(ptr noundef nonnull align 8 dereferenceable(19) %5, i32 noundef %17, i32 noundef 12, i32 noundef 0, ptr noundef null)
  %18 = getelementptr inbounds nuw i8, ptr %0, i64 8
  %19 = load ptr, ptr %18, align 8, !tbaa !3
  %20 = getelementptr inbounds nuw i8, ptr %0, i64 120
  %21 = load i32, ptr %5, align 8, !tbaa !43
  %22 = icmp eq i32 %21, -1
  br i1 %22, label %23, label %_ZNK14func_decl_info7is_nullEv.exit.thread.i

23:                                               ; preds = %_ZN7datalog14dl_decl_plugin11is_rel_sortEP4sort.exit
  %24 = getelementptr inbounds nuw i8, ptr %5, i64 17
  %25 = load i16, ptr %24, align 1
  %26 = trunc i16 %25 to i1
  %27 = and i16 %25, 506
  %28 = icmp ne i16 %27, 0
  %or.cond.not.i = or i1 %28, %26
  br i1 %or.cond.not.i, label %_ZNK14func_decl_info7is_nullEv.exit.thread.i, label %29

_ZNK14func_decl_info7is_nullEv.exit.thread.i:     ; preds = %23, %_ZN7datalog14dl_decl_plugin11is_rel_sortEP4sort.exit
  br label %29

29:                                               ; preds = %_ZNK14func_decl_info7is_nullEv.exit.thread.i, %23
  %.sink.i = phi ptr [ %5, %_ZNK14func_decl_info7is_nullEv.exit.thread.i ], [ null, %23 ]
  %30 = invoke noundef ptr @_ZN11ast_manager12mk_func_declERK6symboljPKP4sortS4_P14func_decl_info(ptr noundef nonnull align 8 dereferenceable(976) %19, ptr noundef nonnull align 8 dereferenceable(8) %20, i32 noundef 1, ptr noundef nonnull %4, ptr noundef %1, ptr noundef %.sink.i)
          to label %_ZN11ast_manager12mk_func_declERK6symboljPKP4sortS4_RK14func_decl_info.exit unwind label %42

_ZN11ast_manager12mk_func_declERK6symboljPKP4sortS4_RK14func_decl_info.exit: ; preds = %29
  %31 = getelementptr inbounds nuw i8, ptr %5, i64 8
  %32 = load ptr, ptr %31, align 8, !tbaa !48
  %.not.i.i.i3 = icmp eq ptr %32, null
  br i1 %.not.i.i.i3, label %_ZN9decl_infoD2Ev.exit, label %_ZNK6vectorI9parameterLb1EjE4sizeEv.exit.i.i.i.i

_ZNK6vectorI9parameterLb1EjE4sizeEv.exit.i.i.i.i: ; preds = %_ZN11ast_manager12mk_func_declERK6symboljPKP4sortS4_RK14func_decl_info.exit
  %33 = getelementptr inbounds i8, ptr %32, i64 -4
  %34 = load i32, ptr %33, align 4, !tbaa !49
  %.not5.i.i.i.i.i.i.i = icmp eq i32 %34, 0
  br i1 %.not5.i.i.i.i.i.i.i, label %_ZN6vectorI9parameterLb1EjE16destroy_elementsEv.exit.i.i.i, label %.lr.ph.i.i.i.i.i.i.i

.lr.ph.i.i.i.i.i.i.i:                             ; preds = %_ZNK6vectorI9parameterLb1EjE4sizeEv.exit.i.i.i.i, %.lr.ph.i.i.i.i.i.i.i
  %.07.i.i.i.i.i.i.i = phi i32 [ %36, %.lr.ph.i.i.i.i.i.i.i ], [ %34, %_ZNK6vectorI9parameterLb1EjE4sizeEv.exit.i.i.i.i ]
  %.046.i.i.i.i.i.i.i = phi ptr [ %35, %.lr.ph.i.i.i.i.i.i.i ], [ %32, %_ZNK6vectorI9parameterLb1EjE4sizeEv.exit.i.i.i.i ]
  call void @_ZN9parameterD1Ev(ptr noundef nonnull align 8 dereferenceable(16) %.046.i.i.i.i.i.i.i) #22
  %35 = getelementptr inbounds nuw i8, ptr %.046.i.i.i.i.i.i.i, i64 16
  %36 = add i32 %.07.i.i.i.i.i.i.i, -1
  %.not.i.i.i.i.i.i.i = icmp eq i32 %36, 0
  br i1 %.not.i.i.i.i.i.i.i, label %_ZN6vectorI9parameterLb1EjE16destroy_elementsEv.exit.loopexit.i.i.i, label %.lr.ph.i.i.i.i.i.i.i, !llvm.loop !50

_ZN6vectorI9parameterLb1EjE16destroy_elementsEv.exit.loopexit.i.i.i: ; preds = %.lr.ph.i.i.i.i.i.i.i
  %.pre.i.i.i = load ptr, ptr %31, align 8, !tbaa !48
  br label %_ZN6vectorI9parameterLb1EjE16destroy_elementsEv.exit.i.i.i

_ZN6vectorI9parameterLb1EjE16destroy_elementsEv.exit.i.i.i: ; preds = %_ZN6vectorI9parameterLb1EjE16destroy_elementsEv.exit.loopexit.i.i.i, %_ZNK6vectorI9parameterLb1EjE4sizeEv.exit.i.i.i.i
  %37 = phi ptr [ %.pre.i.i.i, %_ZN6vectorI9parameterLb1EjE16destroy_elementsEv.exit.loopexit.i.i.i ], [ %32, %_ZNK6vectorI9parameterLb1EjE4sizeEv.exit.i.i.i.i ]
  %38 = getelementptr inbounds i8, ptr %37, i64 -8
  invoke void @_ZN6memory10deallocateEPv(ptr noundef nonnull %38)
          to label %_ZN9decl_infoD2Ev.exit unwind label %39

39:                                               ; preds = %_ZN6vectorI9parameterLb1EjE16destroy_elementsEv.exit.i.i.i
  %40 = landingpad { ptr, i32 }
          catch ptr null
  %41 = extractvalue { ptr, i32 } %40, 0
  call void @__clang_call_terminate(ptr %41) #25
  unreachable

_ZN9decl_infoD2Ev.exit:                           ; preds = %_ZN11ast_manager12mk_func_declERK6symboljPKP4sortS4_RK14func_decl_info.exit, %_ZN6vectorI9parameterLb1EjE16destroy_elementsEv.exit.i.i.i
  call void @llvm.lifetime.end.p0(i64 24, ptr nonnull %5) #22
  ret ptr %30

42:                                               ; preds = %29
  %43 = landingpad { ptr, i32 }
          cleanup
  call void @_ZN9decl_infoD2Ev(ptr noundef nonnull align 8 dereferenceable(19) %5) #22
  call void @llvm.lifetime.end.p0(i64 24, ptr nonnull %5) #22
  br label %common.resume
}